target datalayout = "e-m:e-p270:32:32-p271:32:32-p272:64:64-i64:64-i128:128-f80:128-n8:16:32:64-S128"
target triple = "x86_64-pc-linux-gnu"

%struct.ChaChaPoly_Aead = type { %struct.ChaCha, %struct.Poly1305, i32, i32, i8, i8 }
%struct.ChaCha = type { [16 x i32], i32 }
%struct.Poly1305 = type { [3 x i64], [3 x i64], [2 x i64], i64, [16 x i8], i8 }

; Function Attrs: inlinehint nounwind uwtable
define internal void @ForceZero(ptr noundef %0, i32 noundef %1) #3 {
  %3 = alloca ptr, align 8
  %4 = alloca i32, align 4
  %5 = alloca ptr, align 8
  %6 = alloca ptr, align 8
  %7 = alloca i32, align 4
  store ptr %0, ptr %3, align 8, !tbaa !22
  store i32 %1, ptr %4, align 4, !tbaa !8
  call void @llvm.lifetime.start.p0(i64 8, ptr %5) #5
  %8 = load ptr, ptr %3, align 8, !tbaa !22
  store ptr %8, ptr %5, align 8, !tbaa !3
  call void @llvm.lifetime.start.p0(i64 8, ptr %6) #5
  call void @llvm.lifetime.start.p0(i64 4, ptr %7) #5
  %9 = load ptr, ptr %5, align 8, !tbaa !3
  %10 = ptrtoint ptr %9 to i64
  %11 = and i64 %10, 7
  %12 = sub i64 8, %11
  %13 = and i64 %12, 7
  %14 = trunc i64 %13 to i32
  store i32 %14, ptr %7, align 4, !tbaa !8
  %15 = load i32, ptr %4, align 4, !tbaa !8
  %16 = load i32, ptr %7, align 4, !tbaa !8
  %17 = icmp ult i32 %15, %16
  br i1 %17, label %18, label %20

18:                                               ; preds = %2
  %19 = load i32, ptr %4, align 4, !tbaa !8
  store i32 %19, ptr %7, align 4, !tbaa !8
  br label %20

20:                                               ; preds = %18, %2
  %21 = load i32, ptr %7, align 4, !tbaa !8
  %22 = load i32, ptr %4, align 4, !tbaa !8
  %23 = sub i32 %22, %21
  store i32 %23, ptr %4, align 4, !tbaa !8
  br label %24

24:                                               ; preds = %28, %20
  %25 = load i32, ptr %7, align 4, !tbaa !8
  %26 = add i32 %25, -1
  store i32 %26, ptr %7, align 4, !tbaa !8
  %27 = icmp ne i32 %25, 0
  br i1 %27, label %28, label %31

28:                                               ; preds = %24
  %29 = load ptr, ptr %5, align 8, !tbaa !3
  %30 = getelementptr inbounds nuw i8, ptr %29, i32 1
  store ptr %30, ptr %5, align 8, !tbaa !3
  store volatile i8 0, ptr %29, align 1, !tbaa !19
  br label %24, !llvm.loop !23

31:                                               ; preds = %24
  %32 = load ptr, ptr %5, align 8, !tbaa !3
  store ptr %32, ptr %6, align 8, !tbaa !24
  br label %33

33:                                               ; preds = %40, %31
  %34 = load i32, ptr %4, align 4, !tbaa !8
  %35 = zext i32 %34 to i64
  %36 = icmp uge i64 %35, 8
  br i1 %36, label %37, label %43

37:                                               ; preds = %33
  %38 = load ptr, ptr %6, align 8, !tbaa !24
  %39 = getelementptr inbounds nuw i64, ptr %38, i32 1
  store ptr %39, ptr %6, align 8, !tbaa !24
  store volatile i64 0, ptr %38, align 8, !tbaa !26
  br label %40

40:                                               ; preds = %37
  %41 = load i32, ptr %4, align 4, !tbaa !8
  %42 = sub i32 %41, 8
  store i32 %42, ptr %4, align 4, !tbaa !8
  br label %33, !llvm.loop !27

43:                                               ; preds = %33
  %44 = load ptr, ptr %6, align 8, !tbaa !24
  store ptr %44, ptr %5, align 8, !tbaa !3
  br label %45

45:                                               ; preds = %49, %43
  %46 = load i32, ptr %4, align 4, !tbaa !8
  %47 = add i32 %46, -1
  store i32 %47, ptr %4, align 4, !tbaa !8
  %48 = icmp ne i32 %46, 0
  br i1 %48, label %49, label %52

49:                                               ; preds = %45
  %50 = load ptr, ptr %5, align 8, !tbaa !3
  %51 = getelementptr inbounds nuw i8, ptr %50, i32 1
  store ptr %51, ptr %5, align 8, !tbaa !3
  store volatile i8 0, ptr %50, align 1, !tbaa !19
  br label %45, !llvm.loop !28

52:                                               ; preds = %45
  call void @llvm.lifetime.end.p0(i64 4, ptr %7) #5
  call void @llvm.lifetime.end.p0(i64 8, ptr %6) #5
  call void @llvm.lifetime.end.p0(i64 8, ptr %5) #5
  ret void
}

; Function Attrs: nounwind uwtable
define i32 @wc_ChaCha20Poly1305_Final(ptr noundef %0, ptr noundef %1) #0 {
  %3 = alloca i32, align 4
  %4 = alloca ptr, align 8
  %5 = alloca ptr, align 8
  %6 = alloca i32, align 4
  %7 = alloca i32, align 4
  store ptr %0, ptr %4, align 8, !tbaa !10
  store ptr %1, ptr %5, align 8, !tbaa !3
  call void @llvm.lifetime.start.p0(i64 4, ptr %6) #5
  store i32 0, ptr %6, align 4, !tbaa !8
  %8 = load ptr, ptr %4, align 8, !tbaa !10
  %9 = icmp eq ptr %8, null
  br i1 %9, label %13, label %10

10:                                               ; preds = %2
  %11 = load ptr, ptr %5, align 8, !tbaa !3
  %12 = icmp eq ptr %11, null
  br i1 %12, label %13, label %14

13:                                               ; preds = %10, %2
  store i32 -173, ptr %3, align 4
  store i32 1, ptr %7, align 4
  br label %74

14:                                               ; preds = %10
  %15 = load ptr, ptr %4, align 8, !tbaa !10
  %16 = getelementptr inbounds nuw %struct.ChaChaPoly_Aead, ptr %15, i32 0, i32 4
  %17 = load i8, ptr %16, align 8, !tbaa !12
  %18 = zext i8 %17 to i32
  %19 = icmp ne i32 %18, 2
  br i1 %19, label %20, label %27

20:                                               ; preds = %14
  %21 = load ptr, ptr %4, align 8, !tbaa !10
  %22 = getelementptr inbounds nuw %struct.ChaChaPoly_Aead, ptr %21, i32 0, i32 4
  %23 = load i8, ptr %22, align 8, !tbaa !12
  %24 = zext i8 %23 to i32
  %25 = icmp ne i32 %24, 3
  br i1 %25, label %26, label %27

26:                                               ; preds = %20
  store i32 -192, ptr %3, align 4
  store i32 1, ptr %7, align 4
  br label %74

27:                                               ; preds = %20, %14
  %28 = load ptr, ptr %4, align 8, !tbaa !10
  %29 = getelementptr inbounds nuw %struct.ChaChaPoly_Aead, ptr %28, i32 0, i32 4
  %30 = load i8, ptr %29, align 8, !tbaa !12
  %31 = zext i8 %30 to i32
  %32 = icmp eq i32 %31, 2
  br i1 %32, label %33, label %40

33:                                               ; preds = %27
  %34 = load ptr, ptr %4, align 8, !tbaa !10
  %35 = getelementptr inbounds nuw %struct.ChaChaPoly_Aead, ptr %34, i32 0, i32 1
  %36 = load ptr, ptr %4, align 8, !tbaa !10
  %37 = getelementptr inbounds nuw %struct.ChaChaPoly_Aead, ptr %36, i32 0, i32 2
  %38 = load i32, ptr %37, align 8, !tbaa !17
  %39 = call i32 @wc_Poly1305_Pad(ptr noundef %35, i32 noundef %38)
  store i32 %39, ptr %6, align 4, !tbaa !8
  br label %40

40:                                               ; preds = %33, %27
  %41 = load i32, ptr %6, align 4, !tbaa !8
  %42 = icmp eq i32 %41, 0
  br i1 %42, label %43, label %50

43:                                               ; preds = %40
  %44 = load ptr, ptr %4, align 8, !tbaa !10
  %45 = getelementptr inbounds nuw %struct.ChaChaPoly_Aead, ptr %44, i32 0, i32 1
  %46 = load ptr, ptr %4, align 8, !tbaa !10
  %47 = getelementptr inbounds nuw %struct.ChaChaPoly_Aead, ptr %46, i32 0, i32 3
  %48 = load i32, ptr %47, align 4, !tbaa !18
  %49 = call i32 @wc_Poly1305_Pad(ptr noundef %45, i32 noundef %48)
  store i32 %49, ptr %6, align 4, !tbaa !8
  br label %50

50:                                               ; preds = %43, %40
  %51 = load i32, ptr %6, align 4, !tbaa !8
  %52 = icmp eq i32 %51, 0
  br i1 %52, label %53, label %63

53:                                               ; preds = %50
  %54 = load ptr, ptr %4, align 8, !tbaa !10
  %55 = getelementptr inbounds nuw %struct.ChaChaPoly_Aead, ptr %54, i32 0, i32 1
  %56 = load ptr, ptr %4, align 8, !tbaa !10
  %57 = getelementptr inbounds nuw %struct.ChaChaPoly_Aead, ptr %56, i32 0, i32 2
  %58 = load i32, ptr %57, align 8, !tbaa !17
  %59 = load ptr, ptr %4, align 8, !tbaa !10
  %60 = getelementptr inbounds nuw %struct.ChaChaPoly_Aead, ptr %59, i32 0, i32 3
  %61 = load i32, ptr %60, align 4, !tbaa !18
  %62 = call i32 @wc_Poly1305_EncodeSizes(ptr noundef %55, i32 noundef %58, i32 noundef %61)
  store i32 %62, ptr %6, align 4, !tbaa !8
  br label %63

63:                                               ; preds = %53, %50
  %64 = load i32, ptr %6, align 4, !tbaa !8
  %65 = icmp eq i32 %64, 0
  br i1 %65, label %66, label %71

66:                                               ; preds = %63
  %67 = load ptr, ptr %4, align 8, !tbaa !10
  %68 = getelementptr inbounds nuw %struct.ChaChaPoly_Aead, ptr %67, i32 0, i32 1
  %69 = load ptr, ptr %5, align 8, !tbaa !3
  %70 = call i32 @wc_Poly1305Final(ptr noundef %68, ptr noundef %69)
  store i32 %70, ptr %6, align 4, !tbaa !8
  br label %71

71:                                               ; preds = %66, %63
  %72 = load ptr, ptr %4, align 8, !tbaa !10
  call void @ForceZero(ptr noundef %72, i32 noundef 184)
  %73 = load i32, ptr %6, align 4, !tbaa !8
  store i32 %73, ptr %3, align 4
  store i32 1, ptr %7, align 4
  br label %74

74:                                               ; preds = %71, %26, %13
  call void @llvm.lifetime.end.p0(i64 4, ptr %6) #5
  %75 = load i32, ptr %3, align 4
  ret i32 %75
}