; Function Attrs: nounwind uwtable
define i32 @wc_ChaCha20Poly1305_Final(ptr noundef %0, ptr noundef %1) local_unnamed_addr #0 {
  %3 = icmp eq ptr %0, null
  %4 = icmp eq ptr %1, null
  %or.cond = or i1 %3, %4
  br i1 %or.cond, label %ForceZero.exit, label %5

5:                                                ; preds = %2
  %6 = getelementptr inbounds nuw i8, ptr %0, i64 176
  %7 = load i8, ptr %6, align 8, !tbaa !3
  %8 = and i8 %7, -2
  %switch = icmp eq i8 %8, 2
  br i1 %switch, label %9, label %ForceZero.exit

9:                                                ; preds = %5
  %10 = icmp eq i8 %7, 2
  br i1 %10, label %11, label %.thread

11:                                               ; preds = %9
  %12 = getelementptr inbounds nuw i8, ptr %0, i64 72
  %13 = getelementptr inbounds nuw i8, ptr %0, i64 168
  %14 = load i32, ptr %13, align 8, !tbaa !11
  %15 = tail call i32 @wc_Poly1305_Pad(ptr noundef nonnull %12, i32 noundef %14) #5
  %16 = icmp eq i32 %15, 0
  br i1 %16, label %.thread, label %.thread28

.thread:                                          ; preds = %9, %11
  %17 = getelementptr inbounds nuw i8, ptr %0, i64 72
  %18 = getelementptr inbounds nuw i8, ptr %0, i64 172
  %19 = load i32, ptr %18, align 4, !tbaa !12
  %20 = tail call i32 @wc_Poly1305_Pad(ptr noundef nonnull %17, i32 noundef %19) #5
  %21 = icmp eq i32 %20, 0
  br i1 %21, label %22, label %.thread28

22:                                               ; preds = %.thread
  %23 = getelementptr inbounds nuw i8, ptr %0, i64 168
  %24 = load i32, ptr %23, align 8, !tbaa !11
  %25 = load i32, ptr %18, align 4, !tbaa !12
  %26 = tail call i32 @wc_Poly1305_EncodeSizes(ptr noundef nonnull %17, i32 noundef %24, i32 noundef %25) #5
  %27 = icmp eq i32 %26, 0
  br i1 %27, label %28, label %.thread28

28:                                               ; preds = %22
  %29 = tail call i32 @wc_Poly1305Final(ptr noundef nonnull %17, ptr noundef nonnull %1) #5
  br label %.thread28

.thread28:                                        ; preds = %11, %.thread, %28, %22
  %.3 = phi i32 [ %29, %28 ], [ %26, %22 ], [ %20, %.thread ], [ %15, %11 ]
  %30 = ptrtoint ptr %0 to i64
  %31 = trunc i64 %30 to i32
  %32 = sub i32 0, %31
  %33 = and i32 %32, 7
  %34 = sub nuw nsw i32 184, %33
  %.not24.i = icmp eq i32 %33, 0
  br i1 %.not24.i, label %.lr.ph29.i.preheader, label %.lr.ph.i

.lr.ph29.i.preheader:                             ; preds = %.lr.ph.i, %.thread28
  %.01528.i.ph = phi ptr [ %0, %.thread28 ], [ %36, %.lr.ph.i ]
  br label %.lr.ph29.i

.lr.ph.i:                                         ; preds = %.thread28, %.lr.ph.i
  %.126.i = phi i32 [ %35, %.lr.ph.i ], [ %33, %.thread28 ]
  %.01625.i = phi ptr [ %36, %.lr.ph.i ], [ %0, %.thread28 ]
  %35 = add nsw i32 %.126.i, -1
  %36 = getelementptr inbounds nuw i8, ptr %.01625.i, i64 1
  store volatile i8 0, ptr %.01625.i, align 1, !tbaa !13
  %.not.i = icmp eq i32 %35, 0
  br i1 %.not.i, label %.lr.ph29.i.preheader, label %.lr.ph.i, !llvm.loop !14

.preheader.i:                                     ; preds = %.lr.ph29.i
  %.not2232.i = icmp eq i32 %38, 0
  br i1 %.not2232.i, label %ForceZero.exit, label %.lr.ph35.i

.lr.ph29.i:                                       ; preds = %.lr.ph29.i.preheader, %.lr.ph29.i
  %.01528.i = phi ptr [ %37, %.lr.ph29.i ], [ %.01528.i.ph, %.lr.ph29.i.preheader ]
  %.01827.i = phi i32 [ %38, %.lr.ph29.i ], [ %34, %.lr.ph29.i.preheader ]
  %37 = getelementptr inbounds nuw i8, ptr %.01528.i, i64 8
  store volatile i64 0, ptr %.01528.i, align 8, !tbaa !16
  %38 = add nsw i32 %.01827.i, -8
  %39 = icmp ugt i32 %38, 7
  br i1 %39, label %.lr.ph29.i, label %.preheader.i, !llvm.loop !17

.lr.ph35.i:                                       ; preds = %.preheader.i, %.lr.ph35.i
  %.11734.i = phi ptr [ %41, %.lr.ph35.i ], [ %37, %.preheader.i ]
  %.11933.i = phi i32 [ %40, %.lr.ph35.i ], [ %38, %.preheader.i ]
  %40 = add i32 %.11933.i, -1
  %41 = getelementptr inbounds nuw i8, ptr %.11734.i, i64 1
  store volatile i8 0, ptr %.11734.i, align 1, !tbaa !13
  %.not22.i = icmp eq i32 %40, 0
  br i1 %.not22.i, label %ForceZero.exit, label %.lr.ph35.i, !llvm.loop !18

ForceZero.exit:                                   ; preds = %.lr.ph35.i, %.preheader.i, %5, %2
  %.020 = phi i32 [ -173, %2 ], [ -192, %5 ], [ %.3, %.preheader.i ], [ %.3, %.lr.ph35.i ]
  ret i32 %.020
}